; Function Attrs: mustprogress uwtable
define hidden void @_ZN6spacer11sem_matcherC2ER11ast_manager(ptr noundef nonnull align 8 dereferenceable(56) initializes((0, 8)) %0, ptr noundef nonnull align 8 dereferenceable(976) %1) unnamed_addr #3 align 2 {
  store ptr %1, ptr %0, align 8, !tbaa !3
  %3 = getelementptr inbounds nuw i8, ptr %0, i64 8
  tail call void @_ZN10arith_utilC1ER11ast_manager(ptr noundef nonnull align 8 dereferenceable(16) %3, ptr noundef nonnull align 8 dereferenceable(976) %1)
  %4 = getelementptr inbounds nuw i8, ptr %0, i64 24
  %5 = load ptr, ptr %0, align 8, !tbaa !8
  %6 = ptrtoint ptr %5 to i64
  store i64 %6, ptr %4, align 8, !tbaa !3
  %7 = getelementptr inbounds nuw i8, ptr %0, i64 32
  store ptr null, ptr %7, align 8, !tbaa !23
  %8 = getelementptr inbounds nuw i8, ptr %0, i64 48
  store ptr null, ptr %8, align 8, !tbaa !24
  ret void
}